target datalayout = "e-m:e-p270:32:32-p271:32:32-p272:64:64-i64:64-i128:128-f80:128-n8:16:32:64-S128"
target triple = "x86_64-pc-linux-gnu"

%struct.SEIRawMessage = type { i32, i32, ptr, ptr, ptr, i64 }
%struct.SEIRawMessageList = type { ptr, i32, i32 }

@.str = private unnamed_addr constant [30 x i8] c"Assertion %s failed at %s:%d\0A\00", align 1
@.str.2 = private unnamed_addr constant [21 x i8] c"libavcodec/cbs_sei.c\00", align 1
@.str.3 = private unnamed_addr constant [31 x i8] c"list->nb_messages <= old_count\00", align 1

; Function Attrs: nounwind uwtable
define i32 @ff_cbs_sei_list_add(ptr noundef %0) #0 {
  %2 = alloca i32, align 4
  %3 = alloca ptr, align 8
  %4 = alloca ptr, align 8
  %5 = alloca i32, align 4
  %6 = alloca i32, align 4
  %7 = alloca i32, align 4
  store ptr %0, ptr %3, align 8, !tbaa !29
  call void @llvm.lifetime.start.p0(i64 8, ptr %4) #7
  call void @llvm.lifetime.start.p0(i64 4, ptr %5) #7
  %8 = load ptr, ptr %3, align 8, !tbaa !29
  %9 = getelementptr inbounds nuw %struct.SEIRawMessageList, ptr %8, i32 0, i32 2
  %10 = load i32, ptr %9, align 4, !tbaa !31
  store i32 %10, ptr %5, align 4, !tbaa !27
  br label %11

11:                                               ; preds = %1
  %12 = load ptr, ptr %3, align 8, !tbaa !29
  %13 = getelementptr inbounds nuw %struct.SEIRawMessageList, ptr %12, i32 0, i32 1
  %14 = load i32, ptr %13, align 8, !tbaa !33
  %15 = load i32, ptr %5, align 4, !tbaa !27
  %16 = icmp sle i32 %14, %15
  br i1 %16, label %18, label %17

17:                                               ; preds = %11
  call void (ptr, i32, ptr, ...) @av_log(ptr noundef null, i32 noundef 0, ptr noundef @.str, ptr noundef @.str.3, ptr noundef @.str.2, i32 noundef 71)
  call void @abort() #8
  unreachable

18:                                               ; preds = %11
  br label %19

19:                                               ; preds = %18
  br label %20

20:                                               ; preds = %19
  %21 = load ptr, ptr %3, align 8, !tbaa !29
  %22 = getelementptr inbounds nuw %struct.SEIRawMessageList, ptr %21, i32 0, i32 1
  %23 = load i32, ptr %22, align 8, !tbaa !33
  %24 = add nsw i32 %23, 1
  %25 = load i32, ptr %5, align 4, !tbaa !27
  %26 = icmp sgt i32 %24, %25
  br i1 %26, label %27, label %61

27:                                               ; preds = %20
  call void @llvm.lifetime.start.p0(i64 4, ptr %6) #7
  %28 = load i32, ptr %5, align 4, !tbaa !27
  %29 = mul nsw i32 2, %28
  %30 = add nsw i32 %29, 1
  store i32 %30, ptr %6, align 4, !tbaa !27
  %31 = load ptr, ptr %3, align 8, !tbaa !29
  %32 = getelementptr inbounds nuw %struct.SEIRawMessageList, ptr %31, i32 0, i32 0
  %33 = load ptr, ptr %32, align 8, !tbaa !34
  %34 = load i32, ptr %6, align 4, !tbaa !27
  %35 = sext i32 %34 to i64
  %36 = call ptr @av_realloc_array(ptr noundef %33, i64 noundef %35, i64 noundef 40)
  store ptr %36, ptr %4, align 8, !tbaa !20
  %37 = load ptr, ptr %4, align 8, !tbaa !20
  %38 = icmp ne ptr %37, null
  br i1 %38, label %40, label %39

39:                                               ; preds = %27
  store i32 -12, ptr %2, align 4
  store i32 1, ptr %7, align 4
  br label %58

40:                                               ; preds = %27
  %41 = load ptr, ptr %4, align 8, !tbaa !20
  %42 = load ptr, ptr %3, align 8, !tbaa !29
  %43 = getelementptr inbounds nuw %struct.SEIRawMessageList, ptr %42, i32 0, i32 0
  store ptr %41, ptr %43, align 8, !tbaa !34
  %44 = load i32, ptr %6, align 4, !tbaa !27
  %45 = load ptr, ptr %3, align 8, !tbaa !29
  %46 = getelementptr inbounds nuw %struct.SEIRawMessageList, ptr %45, i32 0, i32 2
  store i32 %44, ptr %46, align 4, !tbaa !31
  %47 = load ptr, ptr %3, align 8, !tbaa !29
  %48 = getelementptr inbounds nuw %struct.SEIRawMessageList, ptr %47, i32 0, i32 0
  %49 = load ptr, ptr %48, align 8, !tbaa !34
  %50 = load i32, ptr %5, align 4, !tbaa !27
  %51 = sext i32 %50 to i64
  %52 = getelementptr inbounds %struct.SEIRawMessage, ptr %49, i64 %51
  %53 = load i32, ptr %6, align 4, !tbaa !27
  %54 = load i32, ptr %5, align 4, !tbaa !27
  %55 = sub nsw i32 %53, %54
  %56 = sext i32 %55 to i64
  %57 = mul i64 %56, 40
  call void @llvm.memset.p0.i64(ptr align 8 %52, i8 0, i64 %57, i1 false)
  store i32 0, ptr %7, align 4
  br label %58

58:                                               ; preds = %40, %39
  call void @llvm.lifetime.end.p0(i64 4, ptr %6) #7
  %59 = load i32, ptr %7, align 4
  switch i32 %59, label %66 [
    i32 0, label %60
  ]

60:                                               ; preds = %58
  br label %61

61:                                               ; preds = %60, %20
  %62 = load ptr, ptr %3, align 8, !tbaa !29
  %63 = getelementptr inbounds nuw %struct.SEIRawMessageList, ptr %62, i32 0, i32 1
  %64 = load i32, ptr %63, align 8, !tbaa !33
  %65 = add nsw i32 %64, 1
  store i32 %65, ptr %63, align 8, !tbaa !33
  store i32 0, ptr %2, align 4
  store i32 1, ptr %7, align 4
  br label %66

66:                                               ; preds = %61, %58
  call void @llvm.lifetime.end.p0(i64 4, ptr %5) #7
  call void @llvm.lifetime.end.p0(i64 8, ptr %4) #7
  %67 = load i32, ptr %2, align 4
  ret i32 %67
}