; Function Attrs: nounwind uwtable
define range(i32 -12, 1) i32 @ff_cbs_sei_list_add(ptr noundef captures(none) %0) local_unnamed_addr #0 {
  %2 = getelementptr inbounds nuw i8, ptr %0, i64 12
  %3 = load i32, ptr %2, align 4, !tbaa !17
  %4 = getelementptr inbounds nuw i8, ptr %0, i64 8
  %5 = load i32, ptr %4, align 8, !tbaa !20
  %.not = icmp sgt i32 %5, %3
  br i1 %.not, label %6, label %7

6:                                                ; preds = %1
  tail call void (ptr, i32, ptr, ...) @av_log(ptr noundef null, i32 noundef 0, ptr noundef nonnull @.str, ptr noundef nonnull @.str.3, ptr noundef nonnull @.str.2, i32 noundef 71) #6
  tail call void @abort() #7
  unreachable

7:                                                ; preds = %1
  %.not23 = icmp slt i32 %5, %3
  br i1 %.not23, label %20, label %8

8:                                                ; preds = %7
  %9 = shl nsw i32 %3, 1
  %10 = or disjoint i32 %9, 1
  %11 = load ptr, ptr %0, align 8, !tbaa !21
  %12 = sext i32 %10 to i64
  %13 = tail call ptr @av_realloc_array(ptr noundef %11, i64 noundef %12, i64 noundef 40) #6
  %.not24.not = icmp eq ptr %13, null
  br i1 %.not24.not, label %.critedge, label %14

14:                                               ; preds = %8
  store ptr %13, ptr %0, align 8, !tbaa !21
  store i32 %10, ptr %2, align 4, !tbaa !17
  %15 = sext i32 %3 to i64
  %16 = getelementptr inbounds %struct.SEIRawMessage, ptr %13, i64 %15
  %17 = sub nsw i32 %10, %3
  %18 = sext i32 %17 to i64
  %19 = mul nsw i64 %18, 40
  tail call void @llvm.memset.p0.i64(ptr nonnull align 8 %16, i8 0, i64 %19, i1 false)
  %.pre = load i32, ptr %4, align 8, !tbaa !20
  br label %20

20:                                               ; preds = %14, %7
  %21 = phi i32 [ %.pre, %14 ], [ %5, %7 ]
  %22 = add nsw i32 %21, 1
  store i32 %22, ptr %4, align 8, !tbaa !20
  br label %.critedge

.critedge:                                        ; preds = %8, %20
  %.1 = phi i32 [ 0, %20 ], [ -12, %8 ]
  ret i32 %.1
}